Archive member included to satisfy reference by file (symbol)

c:/program files (x86)/embitz/2.60/share/armgcc/bin/../lib/gcc/arm-none-eabi/9.3.1/thumb/v7e-m/nofp\libgcc.a(_arm_muldf3.o)
                              obj\debug\src\frequency_control.o (__aeabi_dmul)
c:/program files (x86)/embitz/2.60/share/armgcc/bin/../lib/gcc/arm-none-eabi/9.3.1/thumb/v7e-m/nofp\libgcc.a(_arm_mulsf3.o)
                              obj\debug\src\frequency_control.o (__aeabi_fmul)
c:/program files (x86)/embitz/2.60/share/armgcc/bin/../lib/gcc/arm-none-eabi/9.3.1/thumb/v7e-m/nofp\libgcc.a(_arm_addsubdf3.o)
                              obj\debug\src\frequency_control.o (__aeabi_dsub)
c:/program files (x86)/embitz/2.60/share/armgcc/bin/../lib/gcc/arm-none-eabi/9.3.1/thumb/v7e-m/nofp\libgcc.a(_arm_muldivdf3.o)
                              obj\debug\src\frequency_control.o (__aeabi_ddiv)
c:/program files (x86)/embitz/2.60/share/armgcc/bin/../lib/gcc/arm-none-eabi/9.3.1/thumb/v7e-m/nofp\libgcc.a(_arm_fixunsdfsi.o)
                              obj\debug\src\frequency_control.o (__aeabi_d2uiz)
c:/program files (x86)/embitz/2.60/share/armgcc/bin/../lib/gcc/arm-none-eabi/9.3.1/thumb/v7e-m/nofp\libgcc.a(_arm_truncdfsf2.o)
                              obj\debug\src\frequency_control.o (__aeabi_d2f)
c:/program files (x86)/embitz/2.60/share/armgcc/bin/../lib/gcc/arm-none-eabi/9.3.1/thumb/v7e-m/nofp\libgcc.a(_arm_addsubsf3.o)
                              obj\debug\src\frequency_control.o (__aeabi_fsub)
c:/program files (x86)/embitz/2.60/share/armgcc/bin/../lib/gcc/arm-none-eabi/9.3.1/thumb/v7e-m/nofp\libgcc.a(_arm_muldivsf3.o)
                              obj\debug\src\frequency_control.o (__aeabi_fdiv)
c:/program files (x86)/embitz/2.60/share/armgcc/bin/../lib/gcc/arm-none-eabi/9.3.1/thumb/v7e-m/nofp\libgcc.a(_arm_fixsfsi.o)
                              obj\debug\src\stuw81300.o (__aeabi_f2iz)
c:/program files (x86)/embitz/2.60/share/armgcc/bin/../lib/gcc/arm-none-eabi/9.3.1/thumb/v7e-m/nofp\libgcc.a(_arm_fixunssfsi.o)
                              obj\debug\src\frequency_control.o (__aeabi_f2uiz)
c:/program files (x86)/embitz/2.60/share/armgcc/bin/../lib/gcc/arm-none-eabi/9.3.1/thumb/v7e-m/nofp\libgcc.a(_aeabi_ldivmod.o)
                              obj\debug\src\frequency_control.o (__aeabi_ldivmod)
c:/program files (x86)/embitz/2.60/share/armgcc/bin/../lib/gcc/arm-none-eabi/9.3.1/thumb/v7e-m/nofp\libgcc.a(_fixsfdi.o)
                              obj\debug\src\stuw81300.o (__aeabi_f2lz)
c:/program files (x86)/embitz/2.60/share/armgcc/bin/../lib/gcc/arm-none-eabi/9.3.1/thumb/v7e-m/nofp\libgcc.a(_fixunssfdi.o)
                              c:/program files (x86)/embitz/2.60/share/armgcc/bin/../lib/gcc/arm-none-eabi/9.3.1/thumb/v7e-m/nofp\libgcc.a(_fixsfdi.o) (__aeabi_f2ulz)
c:/program files (x86)/embitz/2.60/share/armgcc/bin/../lib/gcc/arm-none-eabi/9.3.1/thumb/v7e-m/nofp\libgcc.a(_udivmoddi4.o)
                              c:/program files (x86)/embitz/2.60/share/armgcc/bin/../lib/gcc/arm-none-eabi/9.3.1/thumb/v7e-m/nofp\libgcc.a(_aeabi_ldivmod.o) (__udivmoddi4)
c:/program files (x86)/embitz/2.60/share/armgcc/bin/../lib/gcc/arm-none-eabi/9.3.1/thumb/v7e-m/nofp\libgcc.a(_dvmd_tls.o)
                              c:/program files (x86)/embitz/2.60/share/armgcc/bin/../lib/gcc/arm-none-eabi/9.3.1/thumb/v7e-m/nofp\libgcc.a(_aeabi_ldivmod.o) (__aeabi_ldiv0)
c:/program files (x86)/embitz/2.60/share/armgcc/bin/../lib/gcc/arm-none-eabi/9.3.1/thumb/v7e-m/nofp\libgcc.a(_arm_cmpsf2.o)
                              c:/program files (x86)/embitz/2.60/share/armgcc/bin/../lib/gcc/arm-none-eabi/9.3.1/thumb/v7e-m/nofp\libgcc.a(_fixsfdi.o) (__aeabi_fcmplt)
c:/program files (x86)/embitz/2.60/share/armgcc/bin/../lib/gcc/arm-none-eabi/9.3.1/../../../../arm-none-eabi/lib/thumb/v7e-m/nofp\libg_nano.a(lib_a-exit.o)
                              c:/program files (x86)/embitz/2.60/share/armgcc/bin/../lib/gcc/arm-none-eabi/9.3.1/../../../../arm-none-eabi/lib/thumb/v7e-m/nofp/crt0.o (exit)
c:/program files (x86)/embitz/2.60/share/armgcc/bin/../lib/gcc/arm-none-eabi/9.3.1/../../../../arm-none-eabi/lib/thumb/v7e-m/nofp\libg_nano.a(lib_a-impure.o)
                              c:/program files (x86)/embitz/2.60/share/armgcc/bin/../lib/gcc/arm-none-eabi/9.3.1/../../../../arm-none-eabi/lib/thumb/v7e-m/nofp\libg_nano.a(lib_a-exit.o) (_global_impure_ptr)
c:/program files (x86)/embitz/2.60/share/armgcc/bin/../lib/gcc/arm-none-eabi/9.3.1/../../../../arm-none-eabi/lib/thumb/v7e-m/nofp\libg_nano.a(lib_a-init.o)
                              c:/program files (x86)/embitz/2.60/share/armgcc/bin/../lib/gcc/arm-none-eabi/9.3.1/../../../../arm-none-eabi/lib/thumb/v7e-m/nofp/crt0.o (__libc_init_array)
c:/program files (x86)/embitz/2.60/share/armgcc/bin/../lib/gcc/arm-none-eabi/9.3.1/../../../../arm-none-eabi/lib/thumb/v7e-m/nofp\libg_nano.a(lib_a-memset.o)
                              c:/program files (x86)/embitz/2.60/share/armgcc/bin/../lib/gcc/arm-none-eabi/9.3.1/../../../../arm-none-eabi/lib/thumb/v7e-m/nofp/crt0.o (memset)
c:/program files (x86)/embitz/2.60/share/armgcc/bin/../lib/gcc/arm-none-eabi/9.3.1/../../../../arm-none-eabi/lib/thumb/v7e-m/nofp\libnosys.a(_exit.o)
                              c:/program files (x86)/embitz/2.60/share/armgcc/bin/../lib/gcc/arm-none-eabi/9.3.1/../../../../arm-none-eabi/lib/thumb/v7e-m/nofp\libg_nano.a(lib_a-exit.o) (_exit)

Allocating common symbols
Common symbol       size              file

shift_reg           0x27              obj\debug\src\shift_reg.o
MAX2870_PLL_SA      0x24              obj\debug\src\max2870.o
frequencySweep      0x3c              obj\debug\src\frequency_control.o
MAX2870_reg         0x24              obj\debug\src\max2870.o
buffer              0x14              obj\debug\src\main.o
MAX2870_PLL_TG      0x24              obj\debug\src\max2870.o

Discarded input sections

 .text          0x00000000        0x0 c:/program files (x86)/embitz/2.60/share/armgcc/bin/../lib/gcc/arm-none-eabi/9.3.1/thumb/v7e-m/nofp/crti.o
 .data          0x00000000        0x0 c:/program files (x86)/embitz/2.60/share/armgcc/bin/../lib/gcc/arm-none-eabi/9.3.1/thumb/v7e-m/nofp/crti.o
 .bss           0x00000000        0x0 c:/program files (x86)/embitz/2.60/share/armgcc/bin/../lib/gcc/arm-none-eabi/9.3.1/thumb/v7e-m/nofp/crti.o
 .data          0x00000000        0x4 c:/program files (x86)/embitz/2.60/share/armgcc/bin/../lib/gcc/arm-none-eabi/9.3.1/thumb/v7e-m/nofp/crtbegin.o
 .text          0x00000000       0x7c c:/program files (x86)/embitz/2.60/share/armgcc/bin/../lib/gcc/arm-none-eabi/9.3.1/../../../../arm-none-eabi/lib/thumb/v7e-m/nofp/crt0.o
 .data          0x00000000        0x0 c:/program files (x86)/embitz/2.60/share/armgcc/bin/../lib/gcc/arm-none-eabi/9.3.1/../../../../arm-none-eabi/lib/thumb/v7e-m/nofp/crt0.o
 .bss           0x00000000        0x0 c:/program files (x86)/embitz/2.60/share/armgcc/bin/../lib/gcc/arm-none-eabi/9.3.1/../../../../arm-none-eabi/lib/thumb/v7e-m/nofp/crt0.o
 .ARM.extab     0x00000000        0x0 c:/program files (x86)/embitz/2.60/share/armgcc/bin/../lib/gcc/arm-none-eabi/9.3.1/../../../../arm-none-eabi/lib/thumb/v7e-m/nofp/crt0.o
 .ARM.exidx     0x00000000       0x10 c:/program files (x86)/embitz/2.60/share/armgcc/bin/../lib/gcc/arm-none-eabi/9.3.1/../../../../arm-none-eabi/lib/thumb/v7e-m/nofp/crt0.o
 .ARM.attributes
                0x00000000       0x1c c:/program files (x86)/embitz/2.60/share/armgcc/bin/../lib/gcc/arm-none-eabi/9.3.1/../../../../arm-none-eabi/lib/thumb/v7e-m/nofp/crt0.o
 .text          0x00000000       0x14 obj\debug\src\startup_stm32g441xx.o
 .data          0x00000000        0x0 obj\debug\src\startup_stm32g441xx.o
 .bss           0x00000000        0x0 obj\debug\src\startup_stm32g441xx.o
 .data          0x00000000        0x0 obj\debug\src\frequency_control.o
 .bss           0x00000000        0x0 obj\debug\src\frequency_control.o
 .bss           0x00000000        0x0 obj\debug\src\lmx2491.o
 .data          0x00000000        0x0 obj\debug\src\max2870.o
 .bss           0x00000000        0x0 obj\debug\src\max2870.o
 .data          0x00000000        0x0 obj\debug\src\pe43711.o
 .bss           0x00000000        0x0 obj\debug\src\pe43711.o
 .data          0x00000000        0x0 obj\debug\src\shift_reg.o
 .bss           0x00000000        0x0 obj\debug\src\shift_reg.o
 .data          0x00000000        0x0 obj\debug\src\spi_comm.o
 .bss           0x00000000        0x0 obj\debug\src\spi_comm.o
 .data          0x00000000        0x0 obj\debug\src\delay.o
 .bss           0x00000000        0x0 obj\debug\src\delay.o
 .bss           0x00000000        0x0 obj\debug\src\stuw81300.o
 .bss           0x00000000        0x0 obj\debug\src\system_stm32g4xx.o
 .data          0x00000000        0x0 obj\debug\src\usart.o
 .bss           0x00000000        0x0 obj\debug\src\usart.o
 .text          0x00000000      0x254 c:/program files (x86)/embitz/2.60/share/armgcc/bin/../lib/gcc/arm-none-eabi/9.3.1/thumb/v7e-m/nofp\libgcc.a(_arm_muldf3.o)
 .data          0x00000000        0x0 c:/program files (x86)/embitz/2.60/share/armgcc/bin/../lib/gcc/arm-none-eabi/9.3.1/thumb/v7e-m/nofp\libgcc.a(_arm_muldf3.o)
 .bss           0x00000000        0x0 c:/program files (x86)/embitz/2.60/share/armgcc/bin/../lib/gcc/arm-none-eabi/9.3.1/thumb/v7e-m/nofp\libgcc.a(_arm_muldf3.o)
 .debug_frame   0x00000000       0x30 c:/program files (x86)/embitz/2.60/share/armgcc/bin/../lib/gcc/arm-none-eabi/9.3.1/thumb/v7e-m/nofp\libgcc.a(_arm_muldf3.o)
 .ARM.attributes
                0x00000000       0x1e c:/program files (x86)/embitz/2.60/share/armgcc/bin/../lib/gcc/arm-none-eabi/9.3.1/thumb/v7e-m/nofp\libgcc.a(_arm_muldf3.o)
 .text          0x00000000      0x168 c:/program files (x86)/embitz/2.60/share/armgcc/bin/../lib/gcc/arm-none-eabi/9.3.1/thumb/v7e-m/nofp\libgcc.a(_arm_mulsf3.o)
 .data          0x00000000        0x0 c:/program files (x86)/embitz/2.60/share/armgcc/bin/../lib/gcc/arm-none-eabi/9.3.1/thumb/v7e-m/nofp\libgcc.a(_arm_mulsf3.o)
 .bss           0x00000000        0x0 c:/program files (x86)/embitz/2.60/share/armgcc/bin/../lib/gcc/arm-none-eabi/9.3.1/thumb/v7e-m/nofp\libgcc.a(_arm_mulsf3.o)
 .debug_frame   0x00000000       0x24 c:/program files (x86)/embitz/2.60/share/armgcc/bin/../lib/gcc/arm-none-eabi/9.3.1/thumb/v7e-m/nofp\libgcc.a(_arm_mulsf3.o)
 .ARM.attributes
                0x00000000       0x1e c:/program files (x86)/embitz/2.60/share/armgcc/bin/../lib/gcc/arm-none-eabi/9.3.1/thumb/v7e-m/nofp\libgcc.a(_arm_mulsf3.o)
 .data          0x00000000        0x0 c:/program files (x86)/embitz/2.60/share/armgcc/bin/../lib/gcc/arm-none-eabi/9.3.1/thumb/v7e-m/nofp\libgcc.a(_arm_addsubdf3.o)
 .bss           0x00000000        0x0 c:/program files (x86)/embitz/2.60/share/armgcc/bin/../lib/gcc/arm-none-eabi/9.3.1/thumb/v7e-m/nofp\libgcc.a(_arm_addsubdf3.o)
 .data          0x00000000        0x0 c:/program files (x86)/embitz/2.60/share/armgcc/bin/../lib/gcc/arm-none-eabi/9.3.1/thumb/v7e-m/nofp\libgcc.a(_arm_muldivdf3.o)
 .bss           0x00000000        0x0 c:/program files (x86)/embitz/2.60/share/armgcc/bin/../lib/gcc/arm-none-eabi/9.3.1/thumb/v7e-m/nofp\libgcc.a(_arm_muldivdf3.o)
 .data          0x00000000        0x0 c:/program files (x86)/embitz/2.60/share/armgcc/bin/../lib/gcc/arm-none-eabi/9.3.1/thumb/v7e-m/nofp\libgcc.a(_arm_fixunsdfsi.o)
 .bss           0x00000000        0x0 c:/program files (x86)/embitz/2.60/share/armgcc/bin/../lib/gcc/arm-none-eabi/9.3.1/thumb/v7e-m/nofp\libgcc.a(_arm_fixunsdfsi.o)
 .data          0x00000000        0x0 c:/program files (x86)/embitz/2.60/share/armgcc/bin/../lib/gcc/arm-none-eabi/9.3.1/thumb/v7e-m/nofp\libgcc.a(_arm_truncdfsf2.o)
 .bss           0x00000000        0x0 c:/program files (x86)/embitz/2.60/share/armgcc/bin/../lib/gcc/arm-none-eabi/9.3.1/thumb/v7e-m/nofp\libgcc.a(_arm_truncdfsf2.o)
 .data          0x00000000        0x0 c:/program files (x86)/embitz/2.60/share/armgcc/bin/../lib/gcc/arm-none-eabi/9.3.1/thumb/v7e-m/nofp\libgcc.a(_arm_addsubsf3.o)
 .bss           0x00000000        0x0 c:/program files (x86)/embitz/2.60/share/armgcc/bin/../lib/gcc/arm-none-eabi/9.3.1/thumb/v7e-m/nofp\libgcc.a(_arm_addsubsf3.o)
 .data          0x00000000        0x0 c:/program files (x86)/embitz/2.60/share/armgcc/bin/../lib/gcc/arm-none-eabi/9.3.1/thumb/v7e-m/nofp\libgcc.a(_arm_muldivsf3.o)
 .bss           0x00000000        0x0 c:/program files (x86)/embitz/2.60/share/armgcc/bin/../lib/gcc/arm-none-eabi/9.3.1/thumb/v7e-m/nofp\libgcc.a(_arm_muldivsf3.o)
 .data          0x00000000        0x0 c:/program files (x86)/embitz/2.60/share/armgcc/bin/../lib/gcc/arm-none-eabi/9.3.1/thumb/v7e-m/nofp\libgcc.a(_arm_fixsfsi.o)
 .bss           0x00000000        0x0 c:/program files (x86)/embitz/2.60/share/armgcc/bin/../lib/gcc/arm-none-eabi/9.3.1/thumb/v7e-m/nofp\libgcc.a(_arm_fixsfsi.o)
 .data          0x00000000        0x0 c:/program files (x86)/embitz/2.60/share/armgcc/bin/../lib/gcc/arm-none-eabi/9.3.1/thumb/v7e-m/nofp\libgcc.a(_arm_fixunssfsi.o)
 .bss           0x00000000        0x0 c:/program files (x86)/embitz/2.60/share/armgcc/bin/../lib/gcc/arm-none-eabi/9.3.1/thumb/v7e-m/nofp\libgcc.a(_arm_fixunssfsi.o)
 .data          0x00000000        0x0 c:/program files (x86)/embitz/2.60/share/armgcc/bin/../lib/gcc/arm-none-eabi/9.3.1/thumb/v7e-m/nofp\libgcc.a(_aeabi_ldivmod.o)
 .bss           0x00000000        0x0 c:/program files (x86)/embitz/2.60/share/armgcc/bin/../lib/gcc/arm-none-eabi/9.3.1/thumb/v7e-m/nofp\libgcc.a(_aeabi_ldivmod.o)
 .data          0x00000000        0x0 c:/program files (x86)/embitz/2.60/share/armgcc/bin/../lib/gcc/arm-none-eabi/9.3.1/thumb/v7e-m/nofp\libgcc.a(_fixsfdi.o)
 .bss           0x00000000        0x0 c:/program files (x86)/embitz/2.60/share/armgcc/bin/../lib/gcc/arm-none-eabi/9.3.1/thumb/v7e-m/nofp\libgcc.a(_fixsfdi.o)
 .data          0x00000000        0x0 c:/program files (x86)/embitz/2.60/share/armgcc/bin/../lib/gcc/arm-none-eabi/9.3.1/thumb/v7e-m/nofp\libgcc.a(_fixunssfdi.o)
 .bss           0x00000000        0x0 c:/program files (x86)/embitz/2.60/share/armgcc/bin/../lib/gcc/arm-none-eabi/9.3.1/thumb/v7e-m/nofp\libgcc.a(_fixunssfdi.o)
 .data          0x00000000        0x0 c:/program files (x86)/embitz/2.60/share/armgcc/bin/../lib/gcc/arm-none-eabi/9.3.1/thumb/v7e-m/nofp\libgcc.a(_udivmoddi4.o)
 .bss           0x00000000        0x0 c:/program files (x86)/embitz/2.60/share/armgcc/bin/../lib/gcc/arm-none-eabi/9.3.1/thumb/v7e-m/nofp\libgcc.a(_udivmoddi4.o)
 .ARM.extab     0x00000000        0x0 c:/program files (x86)/embitz/2.60/share/armgcc/bin/../lib/gcc/arm-none-eabi/9.3.1/thumb/v7e-m/nofp\libgcc.a(_udivmoddi4.o)
 .data          0x00000000        0x0 c:/program files (x86)/embitz/2.60/share/armgcc/bin/../lib/gcc/arm-none-eabi/9.3.1/thumb/v7e-m/nofp\libgcc.a(_dvmd_tls.o)
 .bss           0x00000000        0x0 c:/program files (x86)/embitz/2.60/share/armgcc/bin/../lib/gcc/arm-none-eabi/9.3.1/thumb/v7e-m/nofp\libgcc.a(_dvmd_tls.o)
 .data          0x00000000        0x0 c:/program files (x86)/embitz/2.60/share/armgcc/bin/../lib/gcc/arm-none-eabi/9.3.1/thumb/v7e-m/nofp\libgcc.a(_arm_cmpsf2.o)
 .bss           0x00000000        0x0 c:/program files (x86)/embitz/2.60/share/armgcc/bin/../lib/gcc/arm-none-eabi/9.3.1/thumb/v7e-m/nofp\libgcc.a(_arm_cmpsf2.o)
 .text          0x00000000        0x0 c:/program files (x86)/embitz/2.60/share/armgcc/bin/../lib/gcc/arm-none-eabi/9.3.1/../../../../arm-none-eabi/lib/thumb/v7e-m/nofp\libg_nano.a(lib_a-exit.o)
 .data          0x00000000        0x0 c:/program files (x86)/embitz/2.60/share/armgcc/bin/../lib/gcc/arm-none-eabi/9.3.1/../../../../arm-none-eabi/lib/thumb/v7e-m/nofp\libg_nano.a(lib_a-exit.o)
 .bss           0x00000000        0x0 c:/program files (x86)/embitz/2.60/share/armgcc/bin/../lib/gcc/arm-none-eabi/9.3.1/../../../../arm-none-eabi/lib/thumb/v7e-m/nofp\libg_nano.a(lib_a-exit.o)
 .text.exit     0x00000000       0x28 c:/program files (x86)/embitz/2.60/share/armgcc/bin/../lib/gcc/arm-none-eabi/9.3.1/../../../../arm-none-eabi/lib/thumb/v7e-m/nofp\libg_nano.a(lib_a-exit.o)
 .debug_frame   0x00000000       0x28 c:/program files (x86)/embitz/2.60/share/armgcc/bin/../lib/gcc/arm-none-eabi/9.3.1/../../../../arm-none-eabi/lib/thumb/v7e-m/nofp\libg_nano.a(lib_a-exit.o)
 .ARM.attributes
                0x00000000       0x2e c:/program files (x86)/embitz/2.60/share/armgcc/bin/../lib/gcc/arm-none-eabi/9.3.1/../../../../arm-none-eabi/lib/thumb/v7e-m/nofp\libg_nano.a(lib_a-exit.o)
 .text          0x00000000        0x0 c:/program files (x86)/embitz/2.60/share/armgcc/bin/../lib/gcc/arm-none-eabi/9.3.1/../../../../arm-none-eabi/lib/thumb/v7e-m/nofp\libg_nano.a(lib_a-impure.o)
 .data          0x00000000        0x0 c:/program files (x86)/embitz/2.60/share/armgcc/bin/../lib/gcc/arm-none-eabi/9.3.1/../../../../arm-none-eabi/lib/thumb/v7e-m/nofp\libg_nano.a(lib_a-impure.o)
 .bss           0x00000000        0x0 c:/program files (x86)/embitz/2.60/share/armgcc/bin/../lib/gcc/arm-none-eabi/9.3.1/../../../../arm-none-eabi/lib/thumb/v7e-m/nofp\libg_nano.a(lib_a-impure.o)
 .data._impure_ptr
                0x00000000        0x4 c:/program files (x86)/embitz/2.60/share/armgcc/bin/../lib/gcc/arm-none-eabi/9.3.1/../../../../arm-none-eabi/lib/thumb/v7e-m/nofp\libg_nano.a(lib_a-impure.o)
 .data.impure_data
                0x00000000       0x60 c:/program files (x86)/embitz/2.60/share/armgcc/bin/../lib/gcc/arm-none-eabi/9.3.1/../../../../arm-none-eabi/lib/thumb/v7e-m/nofp\libg_nano.a(lib_a-impure.o)
 .rodata._global_impure_ptr
                0x00000000        0x4 c:/program files (x86)/embitz/2.60/share/armgcc/bin/../lib/gcc/arm-none-eabi/9.3.1/../../../../arm-none-eabi/lib/thumb/v7e-m/nofp\libg_nano.a(lib_a-impure.o)
 .ARM.attributes
                0x00000000       0x2e c:/program files (x86)/embitz/2.60/share/armgcc/bin/../lib/gcc/arm-none-eabi/9.3.1/../../../../arm-none-eabi/lib/thumb/v7e-m/nofp\libg_nano.a(lib_a-impure.o)
 .text          0x00000000        0x0 c:/program files (x86)/embitz/2.60/share/armgcc/bin/../lib/gcc/arm-none-eabi/9.3.1/../../../../arm-none-eabi/lib/thumb/v7e-m/nofp\libg_nano.a(lib_a-init.o)
 .data          0x00000000        0x0 c:/program files (x86)/embitz/2.60/share/armgcc/bin/../lib/gcc/arm-none-eabi/9.3.1/../../../../arm-none-eabi/lib/thumb/v7e-m/nofp\libg_nano.a(lib_a-init.o)
 .bss           0x00000000        0x0 c:/program files (x86)/embitz/2.60/share/armgcc/bin/../lib/gcc/arm-none-eabi/9.3.1/../../../../arm-none-eabi/lib/thumb/v7e-m/nofp\libg_nano.a(lib_a-init.o)
 .text.__libc_init_array
                0x00000000       0x48 c:/program files (x86)/embitz/2.60/share/armgcc/bin/../lib/gcc/arm-none-eabi/9.3.1/../../../../arm-none-eabi/lib/thumb/v7e-m/nofp\libg_nano.a(lib_a-init.o)
 .debug_frame   0x00000000       0x2c c:/program files (x86)/embitz/2.60/share/armgcc/bin/../lib/gcc/arm-none-eabi/9.3.1/../../../../arm-none-eabi/lib/thumb/v7e-m/nofp\libg_nano.a(lib_a-init.o)
 .ARM.attributes
                0x00000000       0x2e c:/program files (x86)/embitz/2.60/share/armgcc/bin/../lib/gcc/arm-none-eabi/9.3.1/../../../../arm-none-eabi/lib/thumb/v7e-m/nofp\libg_nano.a(lib_a-init.o)
 .text          0x00000000        0x0 c:/program files (x86)/embitz/2.60/share/armgcc/bin/../lib/gcc/arm-none-eabi/9.3.1/../../../../arm-none-eabi/lib/thumb/v7e-m/nofp\libg_nano.a(lib_a-memset.o)
 .data          0x00000000        0x0 c:/program files (x86)/embitz/2.60/share/armgcc/bin/../lib/gcc/arm-none-eabi/9.3.1/../../../../arm-none-eabi/lib/thumb/v7e-m/nofp\libg_nano.a(lib_a-memset.o)
 .bss           0x00000000        0x0 c:/program files (x86)/embitz/2.60/share/armgcc/bin/../lib/gcc/arm-none-eabi/9.3.1/../../../../arm-none-eabi/lib/thumb/v7e-m/nofp\libg_nano.a(lib_a-memset.o)
 .text.memset   0x00000000       0x10 c:/program files (x86)/embitz/2.60/share/armgcc/bin/../lib/gcc/arm-none-eabi/9.3.1/../../../../arm-none-eabi/lib/thumb/v7e-m/nofp\libg_nano.a(lib_a-memset.o)
 .debug_frame   0x00000000       0x20 c:/program files (x86)/embitz/2.60/share/armgcc/bin/../lib/gcc/arm-none-eabi/9.3.1/../../../../arm-none-eabi/lib/thumb/v7e-m/nofp\libg_nano.a(lib_a-memset.o)
 .ARM.attributes
                0x00000000       0x2e c:/program files (x86)/embitz/2.60/share/armgcc/bin/../lib/gcc/arm-none-eabi/9.3.1/../../../../arm-none-eabi/lib/thumb/v7e-m/nofp\libg_nano.a(lib_a-memset.o)
 .text          0x00000000        0x0 c:/program files (x86)/embitz/2.60/share/armgcc/bin/../lib/gcc/arm-none-eabi/9.3.1/../../../../arm-none-eabi/lib/thumb/v7e-m/nofp\libnosys.a(_exit.o)
 .data          0x00000000        0x0 c:/program files (x86)/embitz/2.60/share/armgcc/bin/../lib/gcc/arm-none-eabi/9.3.1/../../../../arm-none-eabi/lib/thumb/v7e-m/nofp\libnosys.a(_exit.o)
 .bss           0x00000000        0x0 c:/program files (x86)/embitz/2.60/share/armgcc/bin/../lib/gcc/arm-none-eabi/9.3.1/../../../../arm-none-eabi/lib/thumb/v7e-m/nofp\libnosys.a(_exit.o)
 .text._exit    0x00000000        0x4 c:/program files (x86)/embitz/2.60/share/armgcc/bin/../lib/gcc/arm-none-eabi/9.3.1/../../../../arm-none-eabi/lib/thumb/v7e-m/nofp\libnosys.a(_exit.o)
 .debug_frame   0x00000000       0x20 c:/program files (x86)/embitz/2.60/share/armgcc/bin/../lib/gcc/arm-none-eabi/9.3.1/../../../../arm-none-eabi/lib/thumb/v7e-m/nofp\libnosys.a(_exit.o)
 .ARM.attributes
                0x00000000       0x2e c:/program files (x86)/embitz/2.60/share/armgcc/bin/../lib/gcc/arm-none-eabi/9.3.1/../../../../arm-none-eabi/lib/thumb/v7e-m/nofp\libnosys.a(_exit.o)
 .text          0x00000000        0x0 c:/program files (x86)/embitz/2.60/share/armgcc/bin/../lib/gcc/arm-none-eabi/9.3.1/thumb/v7e-m/nofp/crtend.o
 .data          0x00000000        0x0 c:/program files (x86)/embitz/2.60/share/armgcc/bin/../lib/gcc/arm-none-eabi/9.3.1/thumb/v7e-m/nofp/crtend.o
 .bss           0x00000000        0x0 c:/program files (x86)/embitz/2.60/share/armgcc/bin/../lib/gcc/arm-none-eabi/9.3.1/thumb/v7e-m/nofp/crtend.o
 .eh_frame      0x00000000        0x4 c:/program files (x86)/embitz/2.60/share/armgcc/bin/../lib/gcc/arm-none-eabi/9.3.1/thumb/v7e-m/nofp/crtend.o
 .ARM.attributes
                0x00000000       0x2e c:/program files (x86)/embitz/2.60/share/armgcc/bin/../lib/gcc/arm-none-eabi/9.3.1/thumb/v7e-m/nofp/crtend.o
 .text          0x00000000        0x0 c:/program files (x86)/embitz/2.60/share/armgcc/bin/../lib/gcc/arm-none-eabi/9.3.1/thumb/v7e-m/nofp/crtn.o
 .data          0x00000000        0x0 c:/program files (x86)/embitz/2.60/share/armgcc/bin/../lib/gcc/arm-none-eabi/9.3.1/thumb/v7e-m/nofp/crtn.o
 .bss           0x00000000        0x0 c:/program files (x86)/embitz/2.60/share/armgcc/bin/../lib/gcc/arm-none-eabi/9.3.1/thumb/v7e-m/nofp/crtn.o

Memory Configuration

Name             Origin             Length             Attributes
FLASH            0x08000000         0x00020000         xr
RAM              0x20000000         0x00008000         xrw
*default*        0x00000000         0xffffffff

Linker script and memory map

LOAD c:/program files (x86)/embitz/2.60/share/armgcc/bin/../lib/gcc/arm-none-eabi/9.3.1/thumb/v7e-m/nofp/crti.o
LOAD c:/program files (x86)/embitz/2.60/share/armgcc/bin/../lib/gcc/arm-none-eabi/9.3.1/thumb/v7e-m/nofp/crtbegin.o
LOAD c:/program files (x86)/embitz/2.60/share/armgcc/bin/../lib/gcc/arm-none-eabi/9.3.1/../../../../arm-none-eabi/lib/thumb/v7e-m/nofp/crt0.o
                0x00000000                __HEAP_SIZE = 0x0
                0x00000100                __STACK_SIZE = 0x100
                0x00000000                _Min_Heap_Size = __HEAP_SIZE
                0x00000100                _Min_Stack_Size = __STACK_SIZE
                0x20008000                _estack = (ORIGIN (RAM) + LENGTH (RAM))

.isr_vector     0x08000000      0x1d8
                0x08000000                . = ALIGN (0x4)
 *(.isr_vector)
 .isr_vector    0x08000000      0x1d8 obj\debug\src\startup_stm32g441xx.o
                0x08000000                g_pfnVectors
                0x080001d8                . = ALIGN (0x4)

.text           0x080001d8     0x4734
                0x080001d8                . = ALIGN (0x4)
 *(.text)
 .text          0x080001d8       0x40 c:/program files (x86)/embitz/2.60/share/armgcc/bin/../lib/gcc/arm-none-eabi/9.3.1/thumb/v7e-m/nofp/crtbegin.o
 .text          0x08000218      0xa9c obj\debug\src\frequency_control.o
                0x08000218                set_CW_frequency
                0x080004a8                calculate_F_step
                0x08000734                calculate_start_stop_F_N
                0x08000968                calculate_frequency_step
                0x080009f6                calculate_start_and_stop_frequency
                0x08000a2e                sweep_init
                0x08000b08                sweep_single
 *fill*         0x08000cb4        0x4 
 .text          0x08000cb8      0x518 obj\debug\src\lmx2491.o
                0x08000cb8                send_LMX2491
                0x08000d98                read_LMX2491
                0x08000e8c                init_LMX2491
                0x08000f5c                setup_ramp_0
                0x08001000                enable_sweep_mode
                0x08001020                enable_CW_mode
                0x08001030                change_F_LMX2491
                0x0800107a                set_CW_frequency_LMX2491
                0x08001168                read_lock_status_LMX2491
 .text          0x080011d0      0x518 obj\debug\src\main.o
                0x080011d0                main
                0x0800137c                init
                0x08001590                NMI_Handler
                0x08001596                HardFault_Handler
                0x0800159c                BusFault_Handler
                0x080015a2                UsageFault_Handler
                0x080015a8                USART1_IRQHandler
                0x08001680                SPI1_IRQHandler
 .text          0x080016e8      0x3a4 obj\debug\src\max2870.o
                0x080016e8                send_MAX2870_double
                0x080017c8                init_MAX2870_double
                0x080019b0                read_lock_status_MAX2870_SA
                0x08001a1c                read_lock_status_MAX2870_TG
 .text          0x08001a8c      0x148 obj\debug\src\pe43711.o
                0x08001a8c                send_attenuator_SA
                0x08001b10                send_attenuator_TG
                0x08001b94                init_attenuators
 .text          0x08001bd4      0x560 obj\debug\src\shift_reg.o
                0x08001bd4                packDataToRegisters
                0x08001d74                init_shift_reg
                0x08001e68                sendDataToShiftRegisters
                0x080020cc                LEDShiftRegister
 .text          0x08002134      0x108 obj\debug\src\spi_comm.o
                0x080021c0                init_spi
                0x08002218                spi_comm_start_frame
 .text          0x0800223c      0x130 obj\debug\src\delay.o
                0x0800223c                timer6_init
                0x08002270                delay_ms
                0x080022cc                timer7_init
                0x08002300                delay_us
                0x0800235c                init_delay
 .text          0x0800236c      0x748 obj\debug\src\stuw81300.o
                0x0800236c                send_STUW81300
                0x08002456                read_STUW81300
                0x0800254e                init_STUW81300
                0x08002580                startup_STUW81300
                0x080025f0                change_N_STUW81300
                0x08002634                change_F_STUW81300
                0x08002674                set_N_division_int_mode
                0x080026b4                set_CW_frequency_STUW81300
                0x08002890                read_status_STUW81300
                0x08002a4c                read_lock_status_STUW81300
 .text          0x08002ab4       0xe0 obj\debug\src\system_stm32g4xx.o
                0x08002ab4                SystemInit
                0x08002ac0                SystemCoreClockUpdate
 .text          0x08002b94      0xa94 obj\debug\src\usart.o
                0x08002c20                init_usart
                0x08002c90                usart_send_string
                0x08002cdc                usart_send_byte
                0x08002d0c                int_to_dec_string
                0x08002dc0                int_to_hex_string
                0x08002e30                string_to_int
                0x08002f28                int_to_bin_string
                0x08002fa0                register_bin_to_int
                0x08002ff2                register_hex_to_int
                0x08003078                compare_string
                0x080030c6                command_decode
 .text          0x08003628      0x378 c:/program files (x86)/embitz/2.60/share/armgcc/bin/../lib/gcc/arm-none-eabi/9.3.1/thumb/v7e-m/nofp\libgcc.a(_arm_addsubdf3.o)
                0x08003628                __aeabi_drsub
                0x08003630                __aeabi_dsub
                0x08003630                __subdf3
                0x08003634                __aeabi_dadd
                0x08003634                __adddf3
                0x080038ac                __floatunsidf
                0x080038ac                __aeabi_ui2d
                0x080038cc                __floatsidf
                0x080038cc                __aeabi_i2d
                0x080038f0                __aeabi_f2d
                0x080038f0                __extendsfdf2
                0x08003934                __floatundidf
                0x08003934                __aeabi_ul2d
                0x08003944                __floatdidf
                0x08003944                __aeabi_l2d
 .text          0x080039a0      0x424 c:/program files (x86)/embitz/2.60/share/armgcc/bin/../lib/gcc/arm-none-eabi/9.3.1/thumb/v7e-m/nofp\libgcc.a(_arm_muldivdf3.o)
                0x080039a0                __aeabi_dmul
                0x080039a0                __muldf3
                0x08003bf4                __divdf3
                0x08003bf4                __aeabi_ddiv
 .text          0x08003dc4       0x40 c:/program files (x86)/embitz/2.60/share/armgcc/bin/../lib/gcc/arm-none-eabi/9.3.1/thumb/v7e-m/nofp\libgcc.a(_arm_fixunsdfsi.o)
                0x08003dc4                __aeabi_d2uiz
                0x08003dc4                __fixunsdfsi
 .text          0x08003e04       0xa0 c:/program files (x86)/embitz/2.60/share/armgcc/bin/../lib/gcc/arm-none-eabi/9.3.1/thumb/v7e-m/nofp\libgcc.a(_arm_truncdfsf2.o)
                0x08003e04                __truncdfsf2
                0x08003e04                __aeabi_d2f
 .text          0x08003ea4      0x21c c:/program files (x86)/embitz/2.60/share/armgcc/bin/../lib/gcc/arm-none-eabi/9.3.1/thumb/v7e-m/nofp\libgcc.a(_arm_addsubsf3.o)
                0x08003ea4                __aeabi_frsub
                0x08003eac                __subsf3
                0x08003eac                __aeabi_fsub
                0x08003eb0                __aeabi_fadd
                0x08003eb0                __addsf3
                0x08004010                __aeabi_ui2f
                0x08004010                __floatunsisf
                0x08004018                __aeabi_i2f
                0x08004018                __floatsisf
                0x08004034                __aeabi_ul2f
                0x08004034                __floatundisf
                0x08004044                __aeabi_l2f
                0x08004044                __floatdisf
 .text          0x080040c0      0x2a0 c:/program files (x86)/embitz/2.60/share/armgcc/bin/../lib/gcc/arm-none-eabi/9.3.1/thumb/v7e-m/nofp\libgcc.a(_arm_muldivsf3.o)
                0x080040c0                __mulsf3
                0x080040c0                __aeabi_fmul
                0x08004228                __aeabi_fdiv
                0x08004228                __divsf3
 .text          0x08004360       0x4c c:/program files (x86)/embitz/2.60/share/armgcc/bin/../lib/gcc/arm-none-eabi/9.3.1/thumb/v7e-m/nofp\libgcc.a(_arm_fixsfsi.o)
                0x08004360                __aeabi_f2iz
                0x08004360                __fixsfsi
 .text          0x080043ac       0x40 c:/program files (x86)/embitz/2.60/share/armgcc/bin/../lib/gcc/arm-none-eabi/9.3.1/thumb/v7e-m/nofp\libgcc.a(_arm_fixunssfsi.o)
                0x080043ac                __fixunssfsi
                0x080043ac                __aeabi_f2uiz
 .text          0x080043ec       0xa0 c:/program files (x86)/embitz/2.60/share/armgcc/bin/../lib/gcc/arm-none-eabi/9.3.1/thumb/v7e-m/nofp\libgcc.a(_aeabi_ldivmod.o)
                0x080043ec                __aeabi_ldivmod
 .text          0x0800448c       0x28 c:/program files (x86)/embitz/2.60/share/armgcc/bin/../lib/gcc/arm-none-eabi/9.3.1/thumb/v7e-m/nofp\libgcc.a(_fixsfdi.o)
                0x0800448c                __fixsfdi
                0x0800448c                __aeabi_f2lz
 .text          0x080044b4       0x40 c:/program files (x86)/embitz/2.60/share/armgcc/bin/../lib/gcc/arm-none-eabi/9.3.1/thumb/v7e-m/nofp\libgcc.a(_fixunssfdi.o)
                0x080044b4                __fixunssfdi
                0x080044b4                __aeabi_f2ulz
 .text          0x080044f4      0x2c0 c:/program files (x86)/embitz/2.60/share/armgcc/bin/../lib/gcc/arm-none-eabi/9.3.1/thumb/v7e-m/nofp\libgcc.a(_udivmoddi4.o)
                0x080044f4                __udivmoddi4
 .text          0x080047b4        0x4 c:/program files (x86)/embitz/2.60/share/armgcc/bin/../lib/gcc/arm-none-eabi/9.3.1/thumb/v7e-m/nofp\libgcc.a(_dvmd_tls.o)
                0x080047b4                __aeabi_idiv0
                0x080047b4                __aeabi_ldiv0
 .text          0x080047b8       0xec c:/program files (x86)/embitz/2.60/share/armgcc/bin/../lib/gcc/arm-none-eabi/9.3.1/thumb/v7e-m/nofp\libgcc.a(_arm_cmpsf2.o)
                0x080047b8                __gesf2
                0x080047b8                __gtsf2
                0x080047c0                __lesf2
                0x080047c0                __ltsf2
                0x080047c8                __nesf2
                0x080047c8                __eqsf2
                0x080047c8                __cmpsf2
                0x08004828                __aeabi_cfrcmple
                0x08004830                __aeabi_cfcmpeq
                0x08004830                __aeabi_cfcmple
                0x08004840                __aeabi_fcmpeq
                0x08004854                __aeabi_fcmplt
                0x08004868                __aeabi_fcmple
                0x0800487c                __aeabi_fcmpge
                0x08004890                __aeabi_fcmpgt
 *(.text*)
 .text.Reset_Handler
                0x080048a4       0x4c obj\debug\src\startup_stm32g441xx.o
                0x080048a4                Reset_Handler
 .text.Default_Handler
                0x080048f0        0x2 obj\debug\src\startup_stm32g441xx.o
                0x080048f0                RTC_Alarm_IRQHandler
                0x080048f0                EXTI2_IRQHandler
                0x080048f0                TIM8_TRG_COM_IRQHandler
                0x080048f0                TIM8_CC_IRQHandler
                0x080048f0                DebugMon_Handler
                0x080048f0                TIM1_CC_IRQHandler
                0x080048f0                USB_HP_IRQHandler
                0x080048f0                CORDIC_IRQHandler
                0x080048f0                SysTick_Handler
                0x080048f0                PendSV_Handler
                0x080048f0                EXTI3_IRQHandler
                0x080048f0                I2C3_ER_IRQHandler
                0x080048f0                EXTI0_IRQHandler
                0x080048f0                I2C2_EV_IRQHandler
                0x080048f0                FPU_IRQHandler
                0x080048f0                FDCAN1_IT1_IRQHandler
                0x080048f0                TIM1_UP_TIM16_IRQHandler
                0x080048f0                ADC1_2_IRQHandler
                0x080048f0                TIM6_DAC_IRQHandler
                0x080048f0                TIM8_UP_IRQHandler
                0x080048f0                DMA2_Channel2_IRQHandler
                0x080048f0                DMA1_Channel4_IRQHandler
                0x080048f0                USART3_IRQHandler
                0x080048f0                TIM4_IRQHandler
                0x080048f0                DMA2_Channel1_IRQHandler
                0x080048f0                I2C1_EV_IRQHandler
                0x080048f0                DMA1_Channel6_IRQHandler
                0x080048f0                UART4_IRQHandler
                0x080048f0                DMA2_Channel4_IRQHandler
                0x080048f0                TIM3_IRQHandler
                0x080048f0                RCC_IRQHandler
                0x080048f0                DMA1_Channel1_IRQHandler
                0x080048f0                Default_Handler
                0x080048f0                RTC_TAMP_LSECSS_IRQHandler
                0x080048f0                FMAC_IRQHandler
                0x080048f0                EXTI15_10_IRQHandler
                0x080048f0                TIM7_IRQHandler
                0x080048f0                UCPD1_IRQHandler
                0x080048f0                I2C3_EV_IRQHandler
                0x080048f0                EXTI9_5_IRQHandler
                0x080048f0                RTC_WKUP_IRQHandler
                0x080048f0                PVD_PVM_IRQHandler
                0x080048f0                SPI2_IRQHandler
                0x080048f0                MemManage_Handler
                0x080048f0                SVC_Handler
                0x080048f0                DMA2_Channel5_IRQHandler
                0x080048f0                CRS_IRQHandler
                0x080048f0                DMA1_Channel5_IRQHandler
                0x080048f0                USB_LP_IRQHandler
                0x080048f0                EXTI4_IRQHandler
                0x080048f0                RNG_IRQHandler
                0x080048f0                TIM1_TRG_COM_TIM17_IRQHandler
                0x080048f0                DMA1_Channel3_IRQHandler
                0x080048f0                WWDG_IRQHandler
                0x080048f0                LPUART1_IRQHandler
                0x080048f0                DMA2_Channel6_IRQHandler
                0x080048f0                FDCAN1_IT0_IRQHandler
                0x080048f0                TIM2_IRQHandler
                0x080048f0                COMP1_2_3_IRQHandler
                0x080048f0                EXTI1_IRQHandler
                0x080048f0                AES_IRQHandler
                0x080048f0                USART2_IRQHandler
                0x080048f0                I2C2_ER_IRQHandler
                0x080048f0                DMA1_Channel2_IRQHandler
                0x080048f0                TIM8_BRK_IRQHandler
                0x080048f0                FLASH_IRQHandler
                0x080048f0                SPI3_IRQHandler
                0x080048f0                I2C1_ER_IRQHandler
                0x080048f0                LPTIM1_IRQHandler
                0x080048f0                DMAMUX_OVR_IRQHandler
                0x080048f0                USBWakeUp_IRQHandler
                0x080048f0                SAI1_IRQHandler
                0x080048f0                DMA2_Channel3_IRQHandler
                0x080048f0                COMP4_IRQHandler
                0x080048f0                TIM1_BRK_TIM15_IRQHandler
 *(.glue_7)
 .glue_7        0x080048f2        0x0 linker stubs
 *(.glue_7t)
 .glue_7t       0x080048f2        0x0 linker stubs
 *(.eh_frame)
 *fill*         0x080048f2        0x2 
 .eh_frame      0x080048f4        0x0 c:/program files (x86)/embitz/2.60/share/armgcc/bin/../lib/gcc/arm-none-eabi/9.3.1/thumb/v7e-m/nofp/crtbegin.o
 *(.init)
 .init          0x080048f4        0x4 c:/program files (x86)/embitz/2.60/share/armgcc/bin/../lib/gcc/arm-none-eabi/9.3.1/thumb/v7e-m/nofp/crti.o
                0x080048f4                _init
 .init          0x080048f8        0x8 c:/program files (x86)/embitz/2.60/share/armgcc/bin/../lib/gcc/arm-none-eabi/9.3.1/thumb/v7e-m/nofp/crtn.o
 *(.fini)
 .fini          0x08004900        0x4 c:/program files (x86)/embitz/2.60/share/armgcc/bin/../lib/gcc/arm-none-eabi/9.3.1/thumb/v7e-m/nofp/crti.o
                0x08004900                _fini
 .fini          0x08004904        0x8 c:/program files (x86)/embitz/2.60/share/armgcc/bin/../lib/gcc/arm-none-eabi/9.3.1/thumb/v7e-m/nofp/crtn.o
                0x0800490c                . = ALIGN (0x4)
                0x0800490c                _etext = .

.vfp11_veneer   0x0800490c        0x0
 .vfp11_veneer  0x0800490c        0x0 linker stubs

.v4_bx          0x0800490c        0x0
 .v4_bx         0x0800490c        0x0 linker stubs

.iplt           0x0800490c        0x0
 .iplt          0x0800490c        0x0 c:/program files (x86)/embitz/2.60/share/armgcc/bin/../lib/gcc/arm-none-eabi/9.3.1/thumb/v7e-m/nofp/crtbegin.o

.rodata         0x0800490c      0x564
                0x0800490c                . = ALIGN (0x4)
 *(.rodata)
 .rodata        0x0800490c       0x48 obj\debug\src\lmx2491.o
 .rodata        0x08004954       0xeb obj\debug\src\main.o
 *fill*         0x08004a3f        0x1 
 .rodata        0x08004a40       0x78 obj\debug\src\max2870.o
 .rodata        0x08004ab8      0x198 obj\debug\src\stuw81300.o
 .rodata        0x08004c50       0x18 obj\debug\src\system_stm32g4xx.o
                0x08004c50                AHBPrescTable
                0x08004c60                APBPrescTable
 .rodata        0x08004c68      0x206 obj\debug\src\usart.o
 *(.rodata*)
                0x08004e70                . = ALIGN (0x4)
 *fill*         0x08004e6e        0x2 

.ARM.extab
 *(.ARM.extab* .gnu.linkonce.armextab.*)

.ARM            0x08004e70        0x8
                0x08004e70                __exidx_start = .
 *(.ARM.exidx*)
 .ARM.exidx     0x08004e70        0x8 c:/program files (x86)/embitz/2.60/share/armgcc/bin/../lib/gcc/arm-none-eabi/9.3.1/thumb/v7e-m/nofp\libgcc.a(_udivmoddi4.o)
                0x08004e78                __exidx_end = .

.rel.dyn        0x08004e78        0x0
 .rel.iplt      0x08004e78        0x0 c:/program files (x86)/embitz/2.60/share/armgcc/bin/../lib/gcc/arm-none-eabi/9.3.1/thumb/v7e-m/nofp/crtbegin.o

.preinit_array  0x08004e78        0x0
                0x08004e78                PROVIDE (__preinit_array_start = .)
 *(.preinit_array*)
                0x08004e78                PROVIDE (__preinit_array_end = .)

.init_array     0x08004e78        0x4
                0x08004e78                PROVIDE (__init_array_start = .)
 *(SORT_BY_NAME(.init_array.*))
 *(.init_array*)
 .init_array    0x08004e78        0x4 c:/program files (x86)/embitz/2.60/share/armgcc/bin/../lib/gcc/arm-none-eabi/9.3.1/thumb/v7e-m/nofp/crtbegin.o
                0x08004e7c                PROVIDE (__init_array_end = .)

.fini_array     0x08004e7c        0x4
                [!provide]                PROVIDE (__fini_array_start = .)
 *(SORT_BY_NAME(.fini_array.*))
 *(.fini_array*)
 .fini_array    0x08004e7c        0x4 c:/program files (x86)/embitz/2.60/share/armgcc/bin/../lib/gcc/arm-none-eabi/9.3.1/thumb/v7e-m/nofp/crtbegin.o
                [!provide]                PROVIDE (__fini_array_end = .)
                0x08004e80                _sidata = LOADADDR (.data)

.data           0x20000000       0x1c load address 0x08004e80
                0x20000000                . = ALIGN (0x4)
                0x20000000                _sdata = .
 *(.data)
 .data          0x20000000        0x8 obj\debug\src\lmx2491.o
                0x20000000                R_FREQ
 .data          0x20000008        0x8 obj\debug\src\main.o
                0x20000008                num_of_points
                0x2000000c                data_send
 .data          0x20000010        0x8 obj\debug\src\stuw81300.o
                0x20000010                ST1
                0x20000014                ST0
 .data          0x20000018        0x4 obj\debug\src\system_stm32g4xx.o
                0x20000018                SystemCoreClock
 *(.data*)
                0x2000001c                . = ALIGN (0x4)
                0x2000001c                _edata = .

.igot.plt       0x2000001c        0x0 load address 0x08004e9c
 .igot.plt      0x2000001c        0x0 c:/program files (x86)/embitz/2.60/share/armgcc/bin/../lib/gcc/arm-none-eabi/9.3.1/thumb/v7e-m/nofp/crtbegin.o
                0x2000001c                . = ALIGN (0x4)

.bss            0x2000001c      0x110 load address 0x08004e9c
                0x2000001c                _sbss = .
                0x2000001c                __bss_start__ = _sbss
 *(.bss)
 .bss           0x2000001c       0x1c c:/program files (x86)/embitz/2.60/share/armgcc/bin/../lib/gcc/arm-none-eabi/9.3.1/thumb/v7e-m/nofp/crtbegin.o
 .bss           0x20000038        0xe obj\debug\src\main.o
                0x20000038                buff_index
                0x2000003c                decode_command
                0x20000040                num_of_points_count
                0x20000044                counter
 *(.bss*)
 *(COMMON)
 *fill*         0x20000046        0x2 
 COMMON         0x20000048       0x3c obj\debug\src\frequency_control.o
                0x20000048                frequencySweep
 COMMON         0x20000084       0x14 obj\debug\src\main.o
                0x20000084                buffer
 COMMON         0x20000098       0x6c obj\debug\src\max2870.o
                0x20000098                MAX2870_PLL_SA
                0x200000bc                MAX2870_reg
                0x200000e0                MAX2870_PLL_TG
 COMMON         0x20000104       0x27 obj\debug\src\shift_reg.o
                0x20000104                shift_reg
                0x2000012c                . = ALIGN (0x4)
 *fill*         0x2000012b        0x1 
                0x2000012c                _ebss = .
                0x2000012c                __bss_end__ = _ebss

.heap           0x2000012c        0x0 load address 0x08004e9c
                0x2000012c                . = ALIGN (0x4)
                [!provide]                PROVIDE (end = .)
                [!provide]                PROVIDE (_end = .)
 *(.heap*)
                0x2000012c                . = (. + _Min_Heap_Size)
                0x2000012c                __HeapLimit = .
                0x2000012c                . = ALIGN (0x4)

.ARM.attributes
                0x00000000       0x2a
 *(.ARM.attributes)
 .ARM.attributes
                0x00000000       0x1e c:/program files (x86)/embitz/2.60/share/armgcc/bin/../lib/gcc/arm-none-eabi/9.3.1/thumb/v7e-m/nofp/crti.o
 .ARM.attributes
                0x0000001e       0x2e c:/program files (x86)/embitz/2.60/share/armgcc/bin/../lib/gcc/arm-none-eabi/9.3.1/thumb/v7e-m/nofp/crtbegin.o
 .ARM.attributes
                0x0000004c       0x21 obj\debug\src\startup_stm32g441xx.o
 .ARM.attributes
                0x0000006d       0x2e obj\debug\src\frequency_control.o
 .ARM.attributes
                0x0000009b       0x2e obj\debug\src\lmx2491.o
 .ARM.attributes
                0x000000c9       0x2e obj\debug\src\main.o
 .ARM.attributes
                0x000000f7       0x2e obj\debug\src\max2870.o
 .ARM.attributes
                0x00000125       0x2e obj\debug\src\pe43711.o
 .ARM.attributes
                0x00000153       0x2e obj\debug\src\shift_reg.o
 .ARM.attributes
                0x00000181       0x2e obj\debug\src\spi_comm.o
 .ARM.attributes
                0x000001af       0x2e obj\debug\src\delay.o
 .ARM.attributes
                0x000001dd       0x2e obj\debug\src\stuw81300.o
 .ARM.attributes
                0x0000020b       0x2e obj\debug\src\system_stm32g4xx.o
 .ARM.attributes
                0x00000239       0x2e obj\debug\src\usart.o
 .ARM.attributes
                0x00000267       0x1e c:/program files (x86)/embitz/2.60/share/armgcc/bin/../lib/gcc/arm-none-eabi/9.3.1/thumb/v7e-m/nofp\libgcc.a(_arm_addsubdf3.o)
 .ARM.attributes
                0x00000285       0x1e c:/program files (x86)/embitz/2.60/share/armgcc/bin/../lib/gcc/arm-none-eabi/9.3.1/thumb/v7e-m/nofp\libgcc.a(_arm_muldivdf3.o)
 .ARM.attributes
                0x000002a3       0x1e c:/program files (x86)/embitz/2.60/share/armgcc/bin/../lib/gcc/arm-none-eabi/9.3.1/thumb/v7e-m/nofp\libgcc.a(_arm_fixunsdfsi.o)
 .ARM.attributes
                0x000002c1       0x1e c:/program files (x86)/embitz/2.60/share/armgcc/bin/../lib/gcc/arm-none-eabi/9.3.1/thumb/v7e-m/nofp\libgcc.a(_arm_truncdfsf2.o)
 .ARM.attributes
                0x000002df       0x1e c:/program files (x86)/embitz/2.60/share/armgcc/bin/../lib/gcc/arm-none-eabi/9.3.1/thumb/v7e-m/nofp\libgcc.a(_arm_addsubsf3.o)
 .ARM.attributes
                0x000002fd       0x1e c:/program files (x86)/embitz/2.60/share/armgcc/bin/../lib/gcc/arm-none-eabi/9.3.1/thumb/v7e-m/nofp\libgcc.a(_arm_muldivsf3.o)
 .ARM.attributes
                0x0000031b       0x1e c:/program files (x86)/embitz/2.60/share/armgcc/bin/../lib/gcc/arm-none-eabi/9.3.1/thumb/v7e-m/nofp\libgcc.a(_arm_fixsfsi.o)
 .ARM.attributes
                0x00000339       0x1e c:/program files (x86)/embitz/2.60/share/armgcc/bin/../lib/gcc/arm-none-eabi/9.3.1/thumb/v7e-m/nofp\libgcc.a(_arm_fixunssfsi.o)
 .ARM.attributes
                0x00000357       0x1e c:/program files (x86)/embitz/2.60/share/armgcc/bin/../lib/gcc/arm-none-eabi/9.3.1/thumb/v7e-m/nofp\libgcc.a(_aeabi_ldivmod.o)
 .ARM.attributes
                0x00000375       0x2e c:/program files (x86)/embitz/2.60/share/armgcc/bin/../lib/gcc/arm-none-eabi/9.3.1/thumb/v7e-m/nofp\libgcc.a(_fixsfdi.o)
 .ARM.attributes
                0x000003a3       0x2e c:/program files (x86)/embitz/2.60/share/armgcc/bin/../lib/gcc/arm-none-eabi/9.3.1/thumb/v7e-m/nofp\libgcc.a(_fixunssfdi.o)
 .ARM.attributes
                0x000003d1       0x2e c:/program files (x86)/embitz/2.60/share/armgcc/bin/../lib/gcc/arm-none-eabi/9.3.1/thumb/v7e-m/nofp\libgcc.a(_udivmoddi4.o)
 .ARM.attributes
                0x000003ff       0x1e c:/program files (x86)/embitz/2.60/share/armgcc/bin/../lib/gcc/arm-none-eabi/9.3.1/thumb/v7e-m/nofp\libgcc.a(_dvmd_tls.o)
 .ARM.attributes
                0x0000041d       0x1e c:/program files (x86)/embitz/2.60/share/armgcc/bin/../lib/gcc/arm-none-eabi/9.3.1/thumb/v7e-m/nofp\libgcc.a(_arm_cmpsf2.o)
 .ARM.attributes
                0x0000043b       0x1e c:/program files (x86)/embitz/2.60/share/armgcc/bin/../lib/gcc/arm-none-eabi/9.3.1/thumb/v7e-m/nofp/crtn.o
                0x20007f00                __StackLimit = (_estack - _Min_Stack_Size)
                0x00000001                ASSERT ((__StackLimit >= __HeapLimit), Region RAM overflowed with stack)
LOAD obj\debug\src\startup_stm32g441xx.o
LOAD obj\debug\src\frequency_control.o
LOAD obj\debug\src\lmx2491.o
LOAD obj\debug\src\main.o
LOAD obj\debug\src\max2870.o
LOAD obj\debug\src\pe43711.o
LOAD obj\debug\src\shift_reg.o
LOAD obj\debug\src\spi_comm.o
LOAD obj\debug\src\delay.o
LOAD obj\debug\src\stuw81300.o
LOAD obj\debug\src\system_stm32g4xx.o
LOAD obj\debug\src\usart.o
START GROUP
LOAD c:/program files (x86)/embitz/2.60/share/armgcc/bin/../lib/gcc/arm-none-eabi/9.3.1/thumb/v7e-m/nofp\libgcc.a
LOAD c:/program files (x86)/embitz/2.60/share/armgcc/bin/../lib/gcc/arm-none-eabi/9.3.1/../../../../arm-none-eabi/lib/thumb/v7e-m/nofp\libg_nano.a
LOAD c:/program files (x86)/embitz/2.60/share/armgcc/bin/../lib/gcc/arm-none-eabi/9.3.1/../../../../arm-none-eabi/lib/thumb/v7e-m/nofp\libc_nano.a
END GROUP
START GROUP
LOAD c:/program files (x86)/embitz/2.60/share/armgcc/bin/../lib/gcc/arm-none-eabi/9.3.1/thumb/v7e-m/nofp\libgcc.a
LOAD c:/program files (x86)/embitz/2.60/share/armgcc/bin/../lib/gcc/arm-none-eabi/9.3.1/../../../../arm-none-eabi/lib/thumb/v7e-m/nofp\libc_nano.a
LOAD c:/program files (x86)/embitz/2.60/share/armgcc/bin/../lib/gcc/arm-none-eabi/9.3.1/../../../../arm-none-eabi/lib/thumb/v7e-m/nofp\libnosys.a
END GROUP
START GROUP
LOAD c:/program files (x86)/embitz/2.60/share/armgcc/bin/../lib/gcc/arm-none-eabi/9.3.1/thumb/v7e-m/nofp\libgcc.a
LOAD c:/program files (x86)/embitz/2.60/share/armgcc/bin/../lib/gcc/arm-none-eabi/9.3.1/../../../../arm-none-eabi/lib/thumb/v7e-m/nofp\libc_nano.a
LOAD c:/program files (x86)/embitz/2.60/share/armgcc/bin/../lib/gcc/arm-none-eabi/9.3.1/../../../../arm-none-eabi/lib/thumb/v7e-m/nofp\libnosys.a
END GROUP
LOAD c:/program files (x86)/embitz/2.60/share/armgcc/bin/../lib/gcc/arm-none-eabi/9.3.1/thumb/v7e-m/nofp/crtend.o
LOAD c:/program files (x86)/embitz/2.60/share/armgcc/bin/../lib/gcc/arm-none-eabi/9.3.1/thumb/v7e-m/nofp/crtn.o
OUTPUT(bin\Debug\SA2_LukaP.elf elf32-littlearm)
LOAD linker stubs

.debug_line     0x00000000     0x240f
 .debug_line    0x00000000       0x7a obj\debug\src\startup_stm32g441xx.o
 .debug_line    0x0000007a      0x513 obj\debug\src\frequency_control.o
 .debug_line    0x0000058d      0x2d2 obj\debug\src\lmx2491.o
 .debug_line    0x0000085f      0x38e obj\debug\src\main.o
 .debug_line    0x00000bed      0x260 obj\debug\src\max2870.o
 .debug_line    0x00000e4d      0x217 obj\debug\src\pe43711.o
 .debug_line    0x00001064      0x3f0 obj\debug\src\shift_reg.o
 .debug_line    0x00001454      0x1b5 obj\debug\src\spi_comm.o
 .debug_line    0x00001609      0x1e7 obj\debug\src\delay.o
 .debug_line    0x000017f0      0x3e6 obj\debug\src\stuw81300.o
 .debug_line    0x00001bd6      0x1ae obj\debug\src\system_stm32g4xx.o
 .debug_line    0x00001d84      0x68b obj\debug\src\usart.o

.debug_info     0x00000000     0x5440
 .debug_info    0x00000000       0x22 obj\debug\src\startup_stm32g441xx.o
 .debug_info    0x00000022      0x6bc obj\debug\src\frequency_control.o
 .debug_info    0x000006de      0x3e3 obj\debug\src\lmx2491.o
 .debug_info    0x00000ac1      0xb62 obj\debug\src\main.o
 .debug_info    0x00001623      0x5b7 obj\debug\src\max2870.o
 .debug_info    0x00001bda      0x3a2 obj\debug\src\pe43711.o
 .debug_info    0x00001f7c      0x527 obj\debug\src\shift_reg.o
 .debug_info    0x000024a3      0x985 obj\debug\src\spi_comm.o
 .debug_info    0x00002e28      0x5b2 obj\debug\src\delay.o
 .debug_info    0x000033da      0x45c obj\debug\src\stuw81300.o
 .debug_info    0x00003836      0x403 obj\debug\src\system_stm32g4xx.o
 .debug_info    0x00003c39     0x1807 obj\debug\src\usart.o

.debug_abbrev   0x00000000     0x120d
 .debug_abbrev  0x00000000       0x12 obj\debug\src\startup_stm32g441xx.o
 .debug_abbrev  0x00000012      0x1a9 obj\debug\src\frequency_control.o
 .debug_abbrev  0x000001bb      0x18d obj\debug\src\lmx2491.o
 .debug_abbrev  0x00000348      0x187 obj\debug\src\main.o
 .debug_abbrev  0x000004cf      0x18a obj\debug\src\max2870.o
 .debug_abbrev  0x00000659      0x124 obj\debug\src\pe43711.o
 .debug_abbrev  0x0000077d      0x19c obj\debug\src\shift_reg.o
 .debug_abbrev  0x00000919      0x195 obj\debug\src\spi_comm.o
 .debug_abbrev  0x00000aae      0x151 obj\debug\src\delay.o
 .debug_abbrev  0x00000bff      0x19e obj\debug\src\stuw81300.o
 .debug_abbrev  0x00000d9d      0x126 obj\debug\src\system_stm32g4xx.o
 .debug_abbrev  0x00000ec3      0x34a obj\debug\src\usart.o

.debug_aranges  0x00000000      0x188
 .debug_aranges
                0x00000000       0x28 obj\debug\src\startup_stm32g441xx.o
 .debug_aranges
                0x00000028       0x20 obj\debug\src\frequency_control.o
 .debug_aranges
                0x00000048       0x20 obj\debug\src\lmx2491.o
 .debug_aranges
                0x00000068       0x20 obj\debug\src\main.o
 .debug_aranges
                0x00000088       0x20 obj\debug\src\max2870.o
 .debug_aranges
                0x000000a8       0x20 obj\debug\src\pe43711.o
 .debug_aranges
                0x000000c8       0x20 obj\debug\src\shift_reg.o
 .debug_aranges
                0x000000e8       0x20 obj\debug\src\spi_comm.o
 .debug_aranges
                0x00000108       0x20 obj\debug\src\delay.o
 .debug_aranges
                0x00000128       0x20 obj\debug\src\stuw81300.o
 .debug_aranges
                0x00000148       0x20 obj\debug\src\system_stm32g4xx.o
 .debug_aranges
                0x00000168       0x20 obj\debug\src\usart.o

.debug_str      0x00000000     0x16c1
 .debug_str     0x00000000       0x63 obj\debug\src\startup_stm32g441xx.o
 .debug_str     0x00000063      0x4c1 obj\debug\src\frequency_control.o
                                0x553 (size before relaxing)
 .debug_str     0x00000524       0xed obj\debug\src\lmx2491.o
                                0x309 (size before relaxing)
 .debug_str     0x00000611      0x322 obj\debug\src\main.o
                                0x6b4 (size before relaxing)
 .debug_str     0x00000933       0xdd obj\debug\src\max2870.o
                                0x46e (size before relaxing)
 .debug_str     0x00000a10       0x45 obj\debug\src\pe43711.o
                                0x384 (size before relaxing)
 .debug_str     0x00000a55       0x72 obj\debug\src\shift_reg.o
                                0x3e3 (size before relaxing)
 .debug_str     0x00000ac7      0x53e obj\debug\src\spi_comm.o
                                0x89a (size before relaxing)
 .debug_str     0x00001005       0xa1 obj\debug\src\delay.o
                                0x3b0 (size before relaxing)
 .debug_str     0x000010a6       0xf8 obj\debug\src\stuw81300.o
                                0x342 (size before relaxing)
 .debug_str     0x0000119e       0x53 obj\debug\src\system_stm32g4xx.o
                                0x362 (size before relaxing)
 .debug_str     0x000011f1      0x4d0 obj\debug\src\usart.o
                                0xd87 (size before relaxing)

.debug_ranges   0x00000000       0x38
 .debug_ranges  0x00000000       0x20 obj\debug\src\startup_stm32g441xx.o
 .debug_ranges  0x00000020       0x18 obj\debug\src\main.o

.comment        0x00000000       0x4c
 .comment       0x00000000       0x4c obj\debug\src\frequency_control.o
                                 0x4d (size before relaxing)
 .comment       0x0000004c       0x4d obj\debug\src\lmx2491.o
 .comment       0x0000004c       0x4d obj\debug\src\main.o
 .comment       0x0000004c       0x4d obj\debug\src\max2870.o
 .comment       0x0000004c       0x4d obj\debug\src\pe43711.o
 .comment       0x0000004c       0x4d obj\debug\src\shift_reg.o
 .comment       0x0000004c       0x4d obj\debug\src\spi_comm.o
 .comment       0x0000004c       0x4d obj\debug\src\delay.o
 .comment       0x0000004c       0x4d obj\debug\src\stuw81300.o
 .comment       0x0000004c       0x4d obj\debug\src\system_stm32g4xx.o
 .comment       0x0000004c       0x4d obj\debug\src\usart.o

.debug_frame    0x00000000      0xe10
 .debug_frame   0x00000000      0x140 obj\debug\src\frequency_control.o
 .debug_frame   0x00000140      0x148 obj\debug\src\lmx2491.o
 .debug_frame   0x00000288       0xf8 obj\debug\src\main.o
 .debug_frame   0x00000380       0x98 obj\debug\src\max2870.o
 .debug_frame   0x00000418       0x74 obj\debug\src\pe43711.o
 .debug_frame   0x0000048c       0xa4 obj\debug\src\shift_reg.o
 .debug_frame   0x00000530       0x9c obj\debug\src\spi_comm.o
 .debug_frame   0x000005cc       0xbc obj\debug\src\delay.o
 .debug_frame   0x00000688      0x170 obj\debug\src\stuw81300.o
 .debug_frame   0x000007f8       0x58 obj\debug\src\system_stm32g4xx.o
 .debug_frame   0x00000850      0x214 obj\debug\src\usart.o
 .debug_frame   0x00000a64       0xac c:/program files (x86)/embitz/2.60/share/armgcc/bin/../lib/gcc/arm-none-eabi/9.3.1/thumb/v7e-m/nofp\libgcc.a(_arm_addsubdf3.o)
 .debug_frame   0x00000b10       0x50 c:/program files (x86)/embitz/2.60/share/armgcc/bin/../lib/gcc/arm-none-eabi/9.3.1/thumb/v7e-m/nofp\libgcc.a(_arm_muldivdf3.o)
 .debug_frame   0x00000b60       0x24 c:/program files (x86)/embitz/2.60/share/armgcc/bin/../lib/gcc/arm-none-eabi/9.3.1/thumb/v7e-m/nofp\libgcc.a(_arm_fixunsdfsi.o)
 .debug_frame   0x00000b84       0x24 c:/program files (x86)/embitz/2.60/share/armgcc/bin/../lib/gcc/arm-none-eabi/9.3.1/thumb/v7e-m/nofp\libgcc.a(_arm_truncdfsf2.o)
 .debug_frame   0x00000ba8       0x4c c:/program files (x86)/embitz/2.60/share/armgcc/bin/../lib/gcc/arm-none-eabi/9.3.1/thumb/v7e-m/nofp\libgcc.a(_arm_addsubsf3.o)
 .debug_frame   0x00000bf4       0x38 c:/program files (x86)/embitz/2.60/share/armgcc/bin/../lib/gcc/arm-none-eabi/9.3.1/thumb/v7e-m/nofp\libgcc.a(_arm_muldivsf3.o)
 .debug_frame   0x00000c2c       0x24 c:/program files (x86)/embitz/2.60/share/armgcc/bin/../lib/gcc/arm-none-eabi/9.3.1/thumb/v7e-m/nofp\libgcc.a(_arm_fixsfsi.o)
 .debug_frame   0x00000c50       0x24 c:/program files (x86)/embitz/2.60/share/armgcc/bin/../lib/gcc/arm-none-eabi/9.3.1/thumb/v7e-m/nofp\libgcc.a(_arm_fixunssfsi.o)
 .debug_frame   0x00000c74       0x44 c:/program files (x86)/embitz/2.60/share/armgcc/bin/../lib/gcc/arm-none-eabi/9.3.1/thumb/v7e-m/nofp\libgcc.a(_aeabi_ldivmod.o)
 .debug_frame   0x00000cb8       0x30 c:/program files (x86)/embitz/2.60/share/armgcc/bin/../lib/gcc/arm-none-eabi/9.3.1/thumb/v7e-m/nofp\libgcc.a(_fixsfdi.o)
 .debug_frame   0x00000ce8       0x2c c:/program files (x86)/embitz/2.60/share/armgcc/bin/../lib/gcc/arm-none-eabi/9.3.1/thumb/v7e-m/nofp\libgcc.a(_fixunssfdi.o)
 .debug_frame   0x00000d14       0x34 c:/program files (x86)/embitz/2.60/share/armgcc/bin/../lib/gcc/arm-none-eabi/9.3.1/thumb/v7e-m/nofp\libgcc.a(_udivmoddi4.o)
 .debug_frame   0x00000d48       0xc8 c:/program files (x86)/embitz/2.60/share/armgcc/bin/../lib/gcc/arm-none-eabi/9.3.1/thumb/v7e-m/nofp\libgcc.a(_arm_cmpsf2.o)
